target datalayout = "e-m:e-p270:32:32-p271:32:32-p272:64:64-i64:64-i128:128-f80:128-n8:16:32:64-S128"
target triple = "x86_64-pc-linux-gnu"

%struct.dt_import_metadata_t = type { ptr, ptr, ptr, ptr, ptr }

; Function Attrs: nounwind uwtable
define internal void @_set_up_entry(ptr noundef %0, ptr noundef %1, ptr noundef %2, i32 noundef %3, ptr noundef %4) #0 {
  %6 = alloca ptr, align 8
  %7 = alloca ptr, align 8
  %8 = alloca ptr, align 8
  %9 = alloca i32, align 4
  %10 = alloca ptr, align 8
  store ptr %0, ptr %6, align 8, !tbaa !11
  store ptr %1, ptr %7, align 8, !tbaa !65
  store ptr %2, ptr %8, align 8, !tbaa !65
  store i32 %3, ptr %9, align 4, !tbaa !61
  store ptr %4, ptr %10, align 8, !tbaa !6
  %11 = load ptr, ptr %6, align 8, !tbaa !11
  %12 = load ptr, ptr %8, align 8, !tbaa !65
  call void @gtk_widget_set_name(ptr noundef %11, ptr noundef %12)
  %13 = load ptr, ptr %6, align 8, !tbaa !11
  %14 = call i64 @gtk_entry_get_type() #8
  %15 = call ptr @g_type_check_instance_cast(ptr noundef %13, i64 noundef %14)
  %16 = load ptr, ptr %7, align 8, !tbaa !65
  call void @gtk_entry_set_text(ptr noundef %15, ptr noundef %16)
  %17 = load ptr, ptr %6, align 8, !tbaa !11
  call void @gtk_widget_set_halign(ptr noundef %17, i32 noundef 0)
  %18 = load ptr, ptr %6, align 8, !tbaa !11
  %19 = call i64 @gtk_entry_get_type() #8
  %20 = call ptr @g_type_check_instance_cast(ptr noundef %18, i64 noundef %19)
  call void @gtk_entry_set_width_chars(ptr noundef %20, i32 noundef 5)
  %21 = load ptr, ptr %6, align 8, !tbaa !11
  call void @gtk_widget_set_hexpand(ptr noundef %21, i32 noundef 1)
  %22 = load ptr, ptr %10, align 8, !tbaa !6
  %23 = getelementptr inbounds nuw %struct.dt_import_metadata_t, ptr %22, i32 0, i32 2
  %24 = load ptr, ptr %23, align 8, !tbaa !13
  %25 = call i64 @gtk_grid_get_type() #8
  %26 = call ptr @g_type_check_instance_cast(ptr noundef %24, i64 noundef %25)
  %27 = load ptr, ptr %6, align 8, !tbaa !11
  %28 = load i32, ptr %9, align 4, !tbaa !61
  call void @gtk_grid_attach(ptr noundef %26, ptr noundef %27, i32 noundef 1, i32 noundef %28, i32 noundef 1, i32 noundef 1)
  ret void
}