; Function Attrs: nounwind uwtable
define internal fastcc void @_set_up_entry(ptr noundef %0, ptr noundef %1, ptr noundef %2, i32 noundef range(i32 1, 12) %3, ptr noundef readonly captures(none) %4) unnamed_addr #0 {
  tail call void @gtk_widget_set_name(ptr noundef %0, ptr noundef %2) #10
  %6 = tail call i64 @gtk_entry_get_type() #11
  %7 = tail call ptr @g_type_check_instance_cast(ptr noundef %0, i64 noundef %6) #10
  tail call void @gtk_entry_set_text(ptr noundef %7, ptr noundef %1) #10
  tail call void @gtk_widget_set_halign(ptr noundef %0, i32 noundef 0) #10
  %8 = tail call ptr @g_type_check_instance_cast(ptr noundef %0, i64 noundef %6) #10
  tail call void @gtk_entry_set_width_chars(ptr noundef %8, i32 noundef 5) #10
  tail call void @gtk_widget_set_hexpand(ptr noundef %0, i32 noundef 1) #10
  %9 = getelementptr inbounds nuw i8, ptr %4, i64 16
  %10 = load ptr, ptr %9, align 8, !tbaa !6
  %11 = tail call i64 @gtk_grid_get_type() #11
  %12 = tail call ptr @g_type_check_instance_cast(ptr noundef %10, i64 noundef %11) #10
  tail call void @gtk_grid_attach(ptr noundef %12, ptr noundef %0, i32 noundef 1, i32 noundef %3, i32 noundef 1, i32 noundef 1) #10
  ret void
}